target datalayout = "e-m:e-p270:32:32-p271:32:32-p272:64:64-i64:64-i128:128-f80:128-n8:16:32:64-S128"
target triple = "x86_64-pc-linux-gnu"

@hf_afp_extattr_bitmap = internal global i32 0, align 4
@hf_afp_extattr_len = internal global i32 0, align 4
@hf_afp_extattr_data = internal global i32 0, align 4
@ett_afp_extattr_bitmap = internal global i32 0, align 4
@decode_attr_bitmap.bitmaps = internal constant [4 x ptr] [ptr @hf_afp_extattr_bitmap_NoFollow, ptr @hf_afp_extattr_bitmap_Create, ptr @hf_afp_extattr_bitmap_Replace, ptr null], align 16

; Function Attrs: null_pointer_is_valid sspstrong uwtable
define internal i32 @decode_attr_bitmap(ptr noundef %0, ptr noundef %1, i32 noundef %2) #1 {
  %4 = alloca ptr, align 8
  %5 = alloca ptr, align 8
  %6 = alloca i32, align 4
  store ptr %0, ptr %4, align 8
  store ptr %1, ptr %5, align 8
  store i32 %2, ptr %6, align 4
  %7 = load ptr, ptr %4, align 8
  %8 = load ptr, ptr %5, align 8
  %9 = load i32, ptr %6, align 4
  %10 = load i32, ptr @hf_afp_extattr_bitmap, align 4
  %11 = load i32, ptr @ett_afp_extattr_bitmap, align 4
  %12 = call ptr @proto_tree_add_bitmask(ptr noundef %7, ptr noundef %8, i32 noundef %9, i32 noundef %10, i32 noundef %11, ptr noundef @decode_attr_bitmap.bitmaps, i32 noundef 0)
  %13 = load i32, ptr %6, align 4
  %14 = add i32 %13, 2
  store i32 %14, ptr %6, align 4
  %15 = load i32, ptr %6, align 4
  ret i32 %15
}

; Function Attrs: null_pointer_is_valid sspstrong uwtable
define internal i32 @dissect_reply_afp_get_ext_attr(ptr noundef %0, ptr noundef %1, ptr noundef %2, i32 noundef %3) #1 {
  %5 = alloca i32, align 4
  %6 = alloca ptr, align 8
  %7 = alloca ptr, align 8
  %8 = alloca ptr, align 8
  %9 = alloca i32, align 4
  %10 = alloca i32, align 4
  %11 = alloca i32, align 4
  store ptr %0, ptr %6, align 8
  store ptr %1, ptr %7, align 8
  store ptr %2, ptr %8, align 8
  store i32 %3, ptr %9, align 4
  call void @llvm.lifetime.start.p0(i64 4, ptr %10) #8
  %12 = load ptr, ptr %8, align 8
  %13 = load ptr, ptr %6, align 8
  %14 = load i32, ptr %9, align 4
  %15 = call i32 @decode_attr_bitmap(ptr noundef %12, ptr noundef %13, i32 noundef %14)
  store i32 %15, ptr %9, align 4
  %16 = load ptr, ptr %8, align 8
  %17 = load i32, ptr @hf_afp_extattr_len, align 4
  %18 = load ptr, ptr %6, align 8
  %19 = load i32, ptr %9, align 4
  %20 = call ptr @proto_tree_add_item_ret_uint(ptr noundef %16, i32 noundef %17, ptr noundef %18, i32 noundef %19, i32 noundef 4, i32 noundef 0, ptr noundef %10)
  %21 = load i32, ptr %9, align 4
  %22 = add i32 %21, 4
  store i32 %22, ptr %9, align 4
  %23 = load i32, ptr %9, align 4
  %24 = load i32, ptr %10, align 4
  %25 = add i32 %23, %24
  %26 = icmp ugt i32 %25, 2147483647
  br i1 %26, label %27, label %29

27:                                               ; preds = %4
  %28 = load i32, ptr %9, align 4
  store i32 %28, ptr %5, align 4
  store i32 1, ptr %11, align 4
  br label %40

29:                                               ; preds = %4
  %30 = load ptr, ptr %8, align 8
  %31 = load i32, ptr @hf_afp_extattr_data, align 4
  %32 = load ptr, ptr %6, align 8
  %33 = load i32, ptr %9, align 4
  %34 = load i32, ptr %10, align 4
  %35 = call ptr @proto_tree_add_item(ptr noundef %30, i32 noundef %31, ptr noundef %32, i32 noundef %33, i32 noundef %34, i32 noundef 0)
  %36 = load i32, ptr %10, align 4
  %37 = load i32, ptr %9, align 4
  %38 = add i32 %37, %36
  store i32 %38, ptr %9, align 4
  %39 = load i32, ptr %9, align 4
  store i32 %39, ptr %5, align 4
  store i32 1, ptr %11, align 4
  br label %40

40:                                               ; preds = %29, %27
  call void @llvm.lifetime.end.p0(i64 4, ptr %10) #8
  %41 = load i32, ptr %5, align 4
  ret i32 %41
}