; Function Attrs: null_pointer_is_valid sspstrong uwtable
define internal fastcc i32 @dissect_reply_afp_get_ext_attr(ptr noundef %0, ptr noundef %1) unnamed_addr #1 {
  %3 = alloca i32, align 4
  call void @llvm.lifetime.start.p0(i64 4, ptr nonnull %3) #8
  %4 = load i32, ptr @hf_afp_extattr_bitmap, align 4
  %5 = load i32, ptr @ett_afp_extattr_bitmap, align 4
  %6 = tail call ptr @proto_tree_add_bitmask(ptr noundef %1, ptr noundef %0, i32 noundef 0, i32 noundef %4, i32 noundef %5, ptr noundef nonnull @decode_attr_bitmap.bitmaps, i32 noundef 0)
  %7 = load i32, ptr @hf_afp_extattr_len, align 4
  %8 = call ptr @proto_tree_add_item_ret_uint(ptr noundef %1, i32 noundef %7, ptr noundef %0, i32 noundef 2, i32 noundef 4, i32 noundef 0, ptr noundef nonnull %3)
  %9 = load i32, ptr %3, align 4
  %10 = add i32 %9, 6
  %11 = icmp slt i32 %10, 0
  br i1 %11, label %17, label %12

12:                                               ; preds = %2
  %13 = load i32, ptr @hf_afp_extattr_data, align 4
  %14 = call ptr @proto_tree_add_item(ptr noundef %1, i32 noundef %13, ptr noundef %0, i32 noundef 6, i32 noundef %9, i32 noundef 0)
  %15 = load i32, ptr %3, align 4
  %16 = add i32 %15, 6
  br label %17

17:                                               ; preds = %2, %12
  %.0 = phi i32 [ %16, %12 ], [ 6, %2 ]
  call void @llvm.lifetime.end.p0(i64 4, ptr nonnull %3) #8
  ret i32 %.0
}